target datalayout = "e-m:e-p270:32:32-p271:32:32-p272:64:64-i64:64-i128:128-f80:128-n8:16:32:64-S128"
target triple = "x86_64-pc-linux-gnu"

%struct.ARKodeMRIStepMemRec = type { ptr, ptr, i32, i32, i32, i32, i32, ptr, ptr, i32, i32, i32, ptr, i32, i32, i32, i32, i32, ptr, ptr, ptr, ptr, ptr, ptr, ptr, i32, ptr, i32, ptr, double, double, double, double, i32, double, double, double, double, double, double, i32, i64, i32, i32, i32, ptr, ptr, ptr, ptr, ptr, ptr, ptr, ptr, ptr, double, double, double, i64, i64, i64, i64, i64, i64, i32, i32, i32, double, double, ptr, i32, ptr, ptr }

@__func__.mriStep_SetNlsRhsFn = private unnamed_addr constant [20 x i8] c"mriStep_SetNlsRhsFn\00", align 1

; Function Attrs: nounwind uwtable
define i32 @mriStep_SetNlsRhsFn(ptr noundef %0, ptr noundef %1) #0 {
  %3 = alloca i32, align 4
  %4 = alloca ptr, align 8
  %5 = alloca ptr, align 8
  %6 = alloca ptr, align 8
  %7 = alloca i32, align 4
  %8 = alloca i32, align 4
  store ptr %0, ptr %4, align 8, !tbaa !3
  store ptr %1, ptr %5, align 8, !tbaa !38
  call void @llvm.lifetime.start.p0(i64 8, ptr %6) #4
  call void @llvm.lifetime.start.p0(i64 4, ptr %7) #4
  %9 = load ptr, ptr %4, align 8, !tbaa !3
  %10 = call i32 @mriStep_AccessStepMem(ptr noundef %9, ptr noundef @__func__.mriStep_SetNlsRhsFn, ptr noundef %6)
  store i32 %10, ptr %7, align 4, !tbaa !10
  %11 = load i32, ptr %7, align 4, !tbaa !10
  %12 = icmp ne i32 %11, 0
  br i1 %12, label %13, label %15

13:                                               ; preds = %2
  %14 = load i32, ptr %7, align 4, !tbaa !10
  store i32 %14, ptr %3, align 4
  store i32 1, ptr %8, align 4
  br label %29

15:                                               ; preds = %2
  %16 = load ptr, ptr %5, align 8, !tbaa !38
  %17 = icmp ne ptr %16, null
  br i1 %17, label %18, label %22

18:                                               ; preds = %15
  %19 = load ptr, ptr %5, align 8, !tbaa !38
  %20 = load ptr, ptr %6, align 8, !tbaa !20
  %21 = getelementptr inbounds nuw %struct.ARKodeMRIStepMemRec, ptr %20, i32 0, i32 28
  store ptr %19, ptr %21, align 8, !tbaa !34
  br label %28

22:                                               ; preds = %15
  %23 = load ptr, ptr %6, align 8, !tbaa !20
  %24 = getelementptr inbounds nuw %struct.ARKodeMRIStepMemRec, ptr %23, i32 0, i32 1
  %25 = load ptr, ptr %24, align 8, !tbaa !36
  %26 = load ptr, ptr %6, align 8, !tbaa !20
  %27 = getelementptr inbounds nuw %struct.ARKodeMRIStepMemRec, ptr %26, i32 0, i32 28
  store ptr %25, ptr %27, align 8, !tbaa !34
  br label %28

28:                                               ; preds = %22, %18
  store i32 0, ptr %3, align 4
  store i32 1, ptr %8, align 4
  br label %29

29:                                               ; preds = %28, %13
  call void @llvm.lifetime.end.p0(i64 4, ptr %7) #4
  call void @llvm.lifetime.end.p0(i64 8, ptr %6) #4
  %30 = load i32, ptr %3, align 4
  ret i32 %30
}